target datalayout = "e-m:e-p270:32:32-p271:32:32-p272:64:64-i64:64-i128:128-f80:128-n8:16:32:64-S128"
target triple = "x86_64-pc-linux-gnu"

%struct.ObjectAddress = type { i32, i32, i32 }
%struct.ScanKeyData = type { i32, i16, i16, i32, i32, %struct.FmgrInfo, i64 }
%struct.FmgrInfo = type { ptr, i32, i16, i8, i8, i8, ptr, ptr, ptr }
%struct.FormData_pg_shdepend = type { i32, i32, i32, i32, i32, i32, i8 }
%struct.HeapTupleData = type { i32, %struct.ItemPointerData, i32, ptr }
%struct.ItemPointerData = type { %struct.BlockIdData, i16 }
%struct.BlockIdData = type { i16, i16 }
%struct.ForEachState = type { ptr, i32 }
%struct.List = type { i32, i32, i32, ptr, [0 x %union.ListCell] }
%union.ListCell = type { ptr }
%struct.HeapTupleHeaderData = type { %union.anon, %struct.ItemPointerData, i16, i16, i8, [0 x i8] }
%union.anon = type { %struct.HeapTupleFields }
%struct.HeapTupleFields = type { i32, i32, %union.anon.0 }
%union.anon.0 = type { i32 }

@.str.1 = private unnamed_addr constant [14 x i8] c"pg_shdepend.c\00", align 1
@MyDatabaseId = external global i32, align 4
@.str.10 = private unnamed_addr constant [81 x i8] c"cannot drop objects owned by %s because they are required by the database system\00", align 1
@__func__.shdepDropOwned = private unnamed_addr constant [15 x i8] c"shdepDropOwned\00", align 1
@.str.11 = private unnamed_addr constant [27 x i8] c"unexpected dependency type\00", align 1

; Function Attrs: inlinehint nounwind uwtable
define internal ptr @GETSTRUCT(ptr noundef %0) #4 {
  %2 = alloca ptr, align 8
  store ptr %0, ptr %2, align 8
  %3 = load ptr, ptr %2, align 8
  %4 = getelementptr inbounds nuw %struct.HeapTupleData, ptr %3, i32 0, i32 3
  %5 = load ptr, ptr %4, align 8
  %6 = load ptr, ptr %2, align 8
  %7 = getelementptr inbounds nuw %struct.HeapTupleData, ptr %6, i32 0, i32 3
  %8 = load ptr, ptr %7, align 8
  %9 = getelementptr inbounds nuw %struct.HeapTupleHeaderData, ptr %8, i32 0, i32 4
  %10 = load i8, ptr %9, align 2
  %11 = zext i8 %10 to i32
  %12 = sext i32 %11 to i64
  %13 = getelementptr inbounds i8, ptr %5, i64 %12
  ret ptr %13
}

; Function Attrs: inlinehint nounwind uwtable
define internal i64 @ObjectIdGetDatum(i32 noundef %0) #4 {
  %2 = alloca i32, align 4
  store i32 %0, ptr %2, align 4
  %3 = load i32, ptr %2, align 4
  %4 = zext i32 %3 to i64
  ret i64 %4
}

; Function Attrs: nounwind uwtable
define dso_local void @shdepDropOwned(ptr noundef %0, i32 noundef %1) #0 {
  %3 = alloca ptr, align 8
  %4 = alloca i32, align 4
  %5 = alloca ptr, align 8
  %6 = alloca ptr, align 8
  %7 = alloca ptr, align 8
  %8 = alloca %struct.ForEachState, align 8
  %9 = alloca i32, align 4
  %10 = alloca i32, align 4
  %11 = alloca [2 x %struct.ScanKeyData], align 16
  %12 = alloca ptr, align 8
  %13 = alloca ptr, align 8
  %14 = alloca %struct.ObjectAddress, align 4
  %15 = alloca ptr, align 8
  %16 = alloca %struct.ObjectAddress, align 4
  store ptr %0, ptr %3, align 8
  store i32 %1, ptr %4, align 4
  call void @llvm.lifetime.start.p0(i64 8, ptr %5) #7
  call void @llvm.lifetime.start.p0(i64 8, ptr %6) #7
  call void @llvm.lifetime.start.p0(i64 8, ptr %7) #7
  %17 = call ptr @new_object_addresses()
  store ptr %17, ptr %7, align 8
  %18 = call ptr @table_open(i32 noundef 1214, i32 noundef 3)
  store ptr %18, ptr %5, align 8
  call void @llvm.lifetime.start.p0(i64 16, ptr %8) #7
  %19 = getelementptr inbounds nuw %struct.ForEachState, ptr %8, i32 0, i32 0
  %20 = load ptr, ptr %3, align 8
  store ptr %20, ptr %19, align 8
  %21 = getelementptr inbounds nuw %struct.ForEachState, ptr %8, i32 0, i32 1
  store i32 0, ptr %21, align 8
  %22 = getelementptr i8, ptr %8, i64 12
  call void @llvm.memset.p0.i64(ptr align 4 %22, i8 0, i64 4, i1 false)
  br label %23

23:                                               ; preds = %205, %2
  %24 = getelementptr inbounds nuw %struct.ForEachState, ptr %8, i32 0, i32 0
  %25 = load ptr, ptr %24, align 8
  %26 = icmp ne ptr %25, null
  br i1 %26, label %27, label %44

27:                                               ; preds = %23
  %28 = getelementptr inbounds nuw %struct.ForEachState, ptr %8, i32 0, i32 1
  %29 = load i32, ptr %28, align 8
  %30 = getelementptr inbounds nuw %struct.ForEachState, ptr %8, i32 0, i32 0
  %31 = load ptr, ptr %30, align 8
  %32 = getelementptr inbounds nuw %struct.List, ptr %31, i32 0, i32 1
  %33 = load i32, ptr %32, align 4
  %34 = icmp slt i32 %29, %33
  br i1 %34, label %35, label %44

35:                                               ; preds = %27
  %36 = getelementptr inbounds nuw %struct.ForEachState, ptr %8, i32 0, i32 0
  %37 = load ptr, ptr %36, align 8
  %38 = getelementptr inbounds nuw %struct.List, ptr %37, i32 0, i32 3
  %39 = load ptr, ptr %38, align 8
  %40 = getelementptr inbounds nuw %struct.ForEachState, ptr %8, i32 0, i32 1
  %41 = load i32, ptr %40, align 8
  %42 = sext i32 %41 to i64
  %43 = getelementptr inbounds %union.ListCell, ptr %39, i64 %42
  store ptr %43, ptr %6, align 8
  br label %45

44:                                               ; preds = %27, %23
  store ptr null, ptr %6, align 8
  br label %45

45:                                               ; preds = %44, %35
  %46 = phi i32 [ 1, %35 ], [ 0, %44 ]
  %47 = icmp ne i32 %46, 0
  br i1 %47, label %49, label %48

48:                                               ; preds = %45
  store i32 2, ptr %9, align 4
  call void @llvm.lifetime.end.p0(i64 16, ptr %8) #7
  br label %209

49:                                               ; preds = %45
  call void @llvm.lifetime.start.p0(i64 4, ptr %10) #7
  %50 = load ptr, ptr %6, align 8
  %51 = load i32, ptr %50, align 8
  store i32 %51, ptr %10, align 4
  call void @llvm.lifetime.start.p0(i64 144, ptr %11) #7
  call void @llvm.lifetime.start.p0(i64 8, ptr %12) #7
  call void @llvm.lifetime.start.p0(i64 8, ptr %13) #7
  %52 = load i32, ptr %10, align 4
  %53 = call zeroext i1 @IsPinnedObject(i32 noundef 1260, i32 noundef %52)
  br i1 %53, label %54, label %71

54:                                               ; preds = %49
  call void @llvm.lifetime.start.p0(i64 12, ptr %14) #7
  %55 = getelementptr inbounds nuw %struct.ObjectAddress, ptr %14, i32 0, i32 0
  store i32 1260, ptr %55, align 4
  %56 = load i32, ptr %10, align 4
  %57 = getelementptr inbounds nuw %struct.ObjectAddress, ptr %14, i32 0, i32 1
  store i32 %56, ptr %57, align 4
  %58 = getelementptr inbounds nuw %struct.ObjectAddress, ptr %14, i32 0, i32 2
  store i32 0, ptr %58, align 4
  br label %59

59:                                               ; preds = %54
  br i1 true, label %60, label %62

60:                                               ; preds = %59
  %61 = call zeroext i1 @errstart_cold(i32 noundef 21, ptr noundef null) #8
  br i1 %61, label %64, label %68

62:                                               ; preds = %59
  %63 = call zeroext i1 @errstart(i32 noundef 21, ptr noundef null)
  br i1 %63, label %64, label %68

64:                                               ; preds = %62, %60
  %65 = call i32 @errcode(i32 noundef 16909442)
  %66 = call ptr @getObjectDescription(ptr noundef %14, i1 noundef zeroext false)
  %67 = call i32 (ptr, ...) @errmsg(ptr noundef @.str.10, ptr noundef %66)
  call void @errfinish(ptr noundef @.str.1, i32 noundef 1381, ptr noundef @__func__.shdepDropOwned)
  br label %68

68:                                               ; preds = %64, %62, %60
  unreachable

69:                                               ; No predecessors!
  br label %70

70:                                               ; preds = %69
  call void @llvm.lifetime.end.p0(i64 12, ptr %14) #7
  br label %71

71:                                               ; preds = %70, %49
  %72 = getelementptr inbounds [2 x %struct.ScanKeyData], ptr %11, i64 0, i64 0
  %73 = call i64 @ObjectIdGetDatum(i32 noundef 1260)
  call void @ScanKeyInit(ptr noundef %72, i16 noundef signext 5, i16 noundef zeroext 3, i32 noundef 184, i64 noundef %73)
  %74 = getelementptr inbounds [2 x %struct.ScanKeyData], ptr %11, i64 0, i64 1
  %75 = load i32, ptr %10, align 4
  %76 = call i64 @ObjectIdGetDatum(i32 noundef %75)
  call void @ScanKeyInit(ptr noundef %74, i16 noundef signext 6, i16 noundef zeroext 3, i32 noundef 184, i64 noundef %76)
  %77 = load ptr, ptr %5, align 8
  %78 = getelementptr inbounds [2 x %struct.ScanKeyData], ptr %11, i64 0, i64 0
  %79 = call ptr @systable_beginscan(ptr noundef %77, i32 noundef 1233, i1 noundef zeroext true, ptr noundef null, i32 noundef 2, ptr noundef %78)
  store ptr %79, ptr %12, align 8
  br label %80

80:                                               ; preds = %202, %200, %71
  %81 = load ptr, ptr %12, align 8
  %82 = call ptr @systable_getnext(ptr noundef %81)
  store ptr %82, ptr %13, align 8
  %83 = icmp ne ptr %82, null
  br i1 %83, label %84, label %203

84:                                               ; preds = %80
  call void @llvm.lifetime.start.p0(i64 8, ptr %15) #7
  %85 = load ptr, ptr %13, align 8
  %86 = call ptr @GETSTRUCT(ptr noundef %85)
  store ptr %86, ptr %15, align 8
  call void @llvm.lifetime.start.p0(i64 12, ptr %16) #7
  %87 = load ptr, ptr %15, align 8
  %88 = getelementptr inbounds nuw %struct.FormData_pg_shdepend, ptr %87, i32 0, i32 0
  %89 = load i32, ptr %88, align 4
  %90 = load i32, ptr @MyDatabaseId, align 4
  %91 = icmp ne i32 %89, %90
  br i1 %91, label %92, label %98

92:                                               ; preds = %84
  %93 = load ptr, ptr %15, align 8
  %94 = getelementptr inbounds nuw %struct.FormData_pg_shdepend, ptr %93, i32 0, i32 0
  %95 = load i32, ptr %94, align 4
  %96 = icmp ne i32 %95, 0
  br i1 %96, label %97, label %98

97:                                               ; preds = %92
  store i32 7, ptr %9, align 4
  br label %200, !llvm.loop !18

98:                                               ; preds = %92, %84
  %99 = load ptr, ptr %15, align 8
  %100 = getelementptr inbounds nuw %struct.FormData_pg_shdepend, ptr %99, i32 0, i32 6
  %101 = load i8, ptr %100, align 4
  %102 = sext i8 %101 to i32
  switch i32 %102, label %199 [
    i32 0, label %103
    i32 114, label %114
    i32 97, label %143
    i32 111, label %157
    i32 105, label %188
  ]

103:                                              ; preds = %98
  br label %104

104:                                              ; preds = %103
  br i1 true, label %105, label %107

105:                                              ; preds = %104
  %106 = call zeroext i1 @errstart_cold(i32 noundef 21, ptr noundef null) #8
  br i1 %106, label %109, label %111

107:                                              ; preds = %104
  %108 = call zeroext i1 @errstart(i32 noundef 21, ptr noundef null)
  br i1 %108, label %109, label %111

109:                                              ; preds = %107, %105
  %110 = call i32 (ptr, ...) @errmsg_internal(ptr noundef @.str.11)
  call void @errfinish(ptr noundef @.str.1, i32 noundef 1413, ptr noundef @__func__.shdepDropOwned)
  br label %111

111:                                              ; preds = %109, %107, %105
  unreachable

112:                                              ; No predecessors!
  br label %113

113:                                              ; preds = %112
  br label %199

114:                                              ; preds = %98
  %115 = load i32, ptr %10, align 4
  %116 = load ptr, ptr %15, align 8
  %117 = getelementptr inbounds nuw %struct.FormData_pg_shdepend, ptr %116, i32 0, i32 1
  %118 = load i32, ptr %117, align 4
  %119 = load ptr, ptr %15, align 8
  %120 = getelementptr inbounds nuw %struct.FormData_pg_shdepend, ptr %119, i32 0, i32 2
  %121 = load i32, ptr %120, align 4
  %122 = call zeroext i1 @RemoveRoleFromObjectPolicy(i32 noundef %115, i32 noundef %118, i32 noundef %121)
  br i1 %122, label %142, label %123

123:                                              ; preds = %114
  %124 = load ptr, ptr %15, align 8
  %125 = getelementptr inbounds nuw %struct.FormData_pg_shdepend, ptr %124, i32 0, i32 1
  %126 = load i32, ptr %125, align 4
  %127 = getelementptr inbounds nuw %struct.ObjectAddress, ptr %16, i32 0, i32 0
  store i32 %126, ptr %127, align 4
  %128 = load ptr, ptr %15, align 8
  %129 = getelementptr inbounds nuw %struct.FormData_pg_shdepend, ptr %128, i32 0, i32 2
  %130 = load i32, ptr %129, align 4
  %131 = getelementptr inbounds nuw %struct.ObjectAddress, ptr %16, i32 0, i32 1
  store i32 %130, ptr %131, align 4
  %132 = load ptr, ptr %15, align 8
  %133 = getelementptr inbounds nuw %struct.FormData_pg_shdepend, ptr %132, i32 0, i32 3
  %134 = load i32, ptr %133, align 4
  %135 = getelementptr inbounds nuw %struct.ObjectAddress, ptr %16, i32 0, i32 2
  store i32 %134, ptr %135, align 4
  call void @AcquireDeletionLock(ptr noundef %16, i32 noundef 0)
  %136 = load ptr, ptr %12, align 8
  %137 = load ptr, ptr %13, align 8
  %138 = call zeroext i1 @systable_recheck_tuple(ptr noundef %136, ptr noundef %137)
  br i1 %138, label %140, label %139

139:                                              ; preds = %123
  call void @ReleaseDeletionLock(ptr noundef %16)
  br label %199

140:                                              ; preds = %123
  %141 = load ptr, ptr %7, align 8
  call void @add_exact_object_address(ptr noundef %16, ptr noundef %141)
  br label %142

142:                                              ; preds = %140, %114
  br label %199

143:                                              ; preds = %98
  %144 = load ptr, ptr %15, align 8
  %145 = getelementptr inbounds nuw %struct.FormData_pg_shdepend, ptr %144, i32 0, i32 1
  %146 = load i32, ptr %145, align 4
  %147 = icmp ne i32 %146, 1261
  br i1 %147, label %148, label %156

148:                                              ; preds = %143
  %149 = load i32, ptr %10, align 4
  %150 = load ptr, ptr %15, align 8
  %151 = getelementptr inbounds nuw %struct.FormData_pg_shdepend, ptr %150, i32 0, i32 1
  %152 = load i32, ptr %151, align 4
  %153 = load ptr, ptr %15, align 8
  %154 = getelementptr inbounds nuw %struct.FormData_pg_shdepend, ptr %153, i32 0, i32 2
  %155 = load i32, ptr %154, align 4
  call void @RemoveRoleFromObjectACL(i32 noundef %149, i32 noundef %152, i32 noundef %155)
  br label %199

156:                                              ; preds = %143
  br label %157

157:                                              ; preds = %98, %156
  %158 = load ptr, ptr %15, align 8
  %159 = getelementptr inbounds nuw %struct.FormData_pg_shdepend, ptr %158, i32 0, i32 0
  %160 = load i32, ptr %159, align 4
  %161 = load i32, ptr @MyDatabaseId, align 4
  %162 = icmp eq i32 %160, %161
  br i1 %162, label %168, label %163

163:                                              ; preds = %157
  %164 = load ptr, ptr %15, align 8
  %165 = getelementptr inbounds nuw %struct.FormData_pg_shdepend, ptr %164, i32 0, i32 1
  %166 = load i32, ptr %165, align 4
  %167 = icmp eq i32 %166, 1261
  br i1 %167, label %168, label %187

168:                                              ; preds = %163, %157
  %169 = load ptr, ptr %15, align 8
  %170 = getelementptr inbounds nuw %struct.FormData_pg_shdepend, ptr %169, i32 0, i32 1
  %171 = load i32, ptr %170, align 4
  %172 = getelementptr inbounds nuw %struct.ObjectAddress, ptr %16, i32 0, i32 0
  store i32 %171, ptr %172, align 4
  %173 = load ptr, ptr %15, align 8
  %174 = getelementptr inbounds nuw %struct.FormData_pg_shdepend, ptr %173, i32 0, i32 2
  %175 = load i32, ptr %174, align 4
  %176 = getelementptr inbounds nuw %struct.ObjectAddress, ptr %16, i32 0, i32 1
  store i32 %175, ptr %176, align 4
  %177 = load ptr, ptr %15, align 8
  %178 = getelementptr inbounds nuw %struct.FormData_pg_shdepend, ptr %177, i32 0, i32 3
  %179 = load i32, ptr %178, align 4
  %180 = getelementptr inbounds nuw %struct.ObjectAddress, ptr %16, i32 0, i32 2
  store i32 %179, ptr %180, align 4
  call void @AcquireDeletionLock(ptr noundef %16, i32 noundef 0)
  %181 = load ptr, ptr %12, align 8
  %182 = load ptr, ptr %13, align 8
  %183 = call zeroext i1 @systable_recheck_tuple(ptr noundef %181, ptr noundef %182)
  br i1 %183, label %185, label %184

184:                                              ; preds = %168
  call void @ReleaseDeletionLock(ptr noundef %16)
  br label %199

185:                                              ; preds = %168
  %186 = load ptr, ptr %7, align 8
  call void @add_exact_object_address(ptr noundef %16, ptr noundef %186)
  br label %187

187:                                              ; preds = %185, %163
  br label %199

188:                                              ; preds = %98
  %189 = load i32, ptr %10, align 4
  %190 = load ptr, ptr %15, align 8
  %191 = getelementptr inbounds nuw %struct.FormData_pg_shdepend, ptr %190, i32 0, i32 1
  %192 = load i32, ptr %191, align 4
  %193 = load ptr, ptr %15, align 8
  %194 = getelementptr inbounds nuw %struct.FormData_pg_shdepend, ptr %193, i32 0, i32 2
  %195 = load i32, ptr %194, align 4
  %196 = load ptr, ptr %15, align 8
  %197 = getelementptr inbounds nuw %struct.FormData_pg_shdepend, ptr %196, i32 0, i32 3
  %198 = load i32, ptr %197, align 4
  call void @RemoveRoleFromInitPriv(i32 noundef %189, i32 noundef %192, i32 noundef %195, i32 noundef %198)
  br label %199

199:                                              ; preds = %98, %188, %187, %184, %148, %142, %139, %113
  store i32 0, ptr %9, align 4
  br label %200

200:                                              ; preds = %199, %97
  call void @llvm.lifetime.end.p0(i64 12, ptr %16) #7
  call void @llvm.lifetime.end.p0(i64 8, ptr %15) #7
  %201 = load i32, ptr %9, align 4
  switch i32 %201, label %215 [
    i32 0, label %202
    i32 7, label %80
  ]

202:                                              ; preds = %200
  br label %80, !llvm.loop !18

203:                                              ; preds = %80
  %204 = load ptr, ptr %12, align 8
  call void @systable_endscan(ptr noundef %204)
  call void @llvm.lifetime.end.p0(i64 8, ptr %13) #7
  call void @llvm.lifetime.end.p0(i64 8, ptr %12) #7
  call void @llvm.lifetime.end.p0(i64 144, ptr %11) #7
  call void @llvm.lifetime.end.p0(i64 4, ptr %10) #7
  br label %205

205:                                              ; preds = %203
  %206 = getelementptr inbounds nuw %struct.ForEachState, ptr %8, i32 0, i32 1
  %207 = load i32, ptr %206, align 8
  %208 = add i32 %207, 1
  store i32 %208, ptr %206, align 8
  br label %23, !llvm.loop !19

209:                                              ; preds = %48
  %210 = load ptr, ptr %7, align 8
  call void @sort_object_addresses(ptr noundef %210)
  %211 = load ptr, ptr %7, align 8
  %212 = load i32, ptr %4, align 4
  call void @performMultipleDeletions(ptr noundef %211, i32 noundef %212, i32 noundef 0)
  %213 = load ptr, ptr %5, align 8
  call void @table_close(ptr noundef %213, i32 noundef 3)
  %214 = load ptr, ptr %7, align 8
  call void @free_object_addresses(ptr noundef %214)
  call void @llvm.lifetime.end.p0(i64 8, ptr %7) #7
  call void @llvm.lifetime.end.p0(i64 8, ptr %6) #7
  call void @llvm.lifetime.end.p0(i64 8, ptr %5) #7
  ret void

215:                                              ; preds = %200
  unreachable
}