; Function Attrs: nounwind uwtable
define dso_local void @shdepDropOwned(ptr noundef readonly captures(address_is_null) %0, i32 noundef %1) local_unnamed_addr #0 {
  %3 = alloca [2 x %struct.ScanKeyData], align 16
  %4 = alloca %struct.ObjectAddress, align 4
  %5 = alloca %struct.ObjectAddress, align 4
  %6 = tail call ptr @new_object_addresses() #8
  %7 = tail call ptr @table_open(i32 noundef 1214, i32 noundef 3) #8
  %.not = icmp eq ptr %0, null
  br i1 %.not, label %._crit_edge61, label %.lr.ph60

.lr.ph60:                                         ; preds = %2
  %8 = getelementptr inbounds nuw i8, ptr %0, i64 4
  %9 = getelementptr inbounds nuw i8, ptr %0, i64 16
  %10 = getelementptr inbounds nuw i8, ptr %3, i64 72
  %11 = getelementptr inbounds nuw i8, ptr %5, i64 4
  %12 = getelementptr inbounds nuw i8, ptr %5, i64 8
  %13 = load i32, ptr %8, align 4
  %14 = icmp sgt i32 %13, 0
  br i1 %14, label %.lr.ph69, label %._crit_edge61

._crit_edge61:                                    ; preds = %._crit_edge, %.lr.ph60, %2
  call void @sort_object_addresses(ptr noundef %6) #8
  call void @performMultipleDeletions(ptr noundef %6, i32 noundef %1, i32 noundef 0) #8
  call void @table_close(ptr noundef %7, i32 noundef 3) #8
  call void @free_object_addresses(ptr noundef %6) #8
  ret void

.lr.ph69:                                         ; preds = %.lr.ph60, %._crit_edge
  %indvars.iv68 = phi i64 [ %indvars.iv.next, %._crit_edge ], [ 0, %.lr.ph60 ]
  %15 = load ptr, ptr %9, align 8
  %16 = getelementptr inbounds nuw %union.ListCell, ptr %15, i64 %indvars.iv68
  %17 = load i32, ptr %16, align 8
  call void @llvm.lifetime.start.p0(i64 144, ptr nonnull %3) #8
  %18 = call zeroext i1 @IsPinnedObject(i32 noundef 1260, i32 noundef %17) #8
  br i1 %18, label %19, label %26

19:                                               ; preds = %.lr.ph69
  call void @llvm.lifetime.start.p0(i64 12, ptr nonnull %4) #8
  store i32 1260, ptr %4, align 4
  %20 = getelementptr inbounds nuw i8, ptr %4, i64 4
  store i32 %17, ptr %20, align 4
  %21 = getelementptr inbounds nuw i8, ptr %4, i64 8
  store i32 0, ptr %21, align 4
  %22 = call zeroext i1 @errstart_cold(i32 noundef 21, ptr noundef null) #9
  call void @llvm.assume(i1 %22)
  %23 = call i32 @errcode(i32 noundef 16909442) #8
  %24 = call ptr @getObjectDescription(ptr noundef nonnull %4, i1 noundef zeroext false) #8
  %25 = call i32 (ptr, ...) @errmsg(ptr noundef nonnull @.str.10, ptr noundef %24) #8
  call void @errfinish(ptr noundef nonnull @.str.1, i32 noundef 1381, ptr noundef nonnull @__func__.shdepDropOwned) #8
  unreachable

26:                                               ; preds = %.lr.ph69
  call void @ScanKeyInit(ptr noundef nonnull %3, i16 noundef signext 5, i16 noundef zeroext 3, i32 noundef 184, i64 noundef 1260) #8
  %27 = zext i32 %17 to i64
  call void @ScanKeyInit(ptr noundef nonnull %10, i16 noundef signext 6, i16 noundef zeroext 3, i32 noundef 184, i64 noundef %27) #8
  %28 = call ptr @systable_beginscan(ptr noundef %7, i32 noundef 1233, i1 noundef zeroext true, ptr noundef null, i32 noundef 2, ptr noundef nonnull %3) #8
  %29 = call ptr @systable_getnext(ptr noundef %28) #8
  %.not5057 = icmp eq ptr %29, null
  br i1 %.not5057, label %._crit_edge, label %.lr.ph

.lr.ph:                                           ; preds = %26, %82
  %30 = phi ptr [ %83, %82 ], [ %29, %26 ]
  %31 = getelementptr i8, ptr %30, i64 16
  %.val = load ptr, ptr %31, align 8
  %32 = getelementptr inbounds nuw i8, ptr %.val, i64 22
  %33 = load i8, ptr %32, align 2
  %34 = zext i8 %33 to i64
  %35 = getelementptr inbounds nuw i8, ptr %.val, i64 %34
  call void @llvm.lifetime.start.p0(i64 12, ptr nonnull %5) #8
  %36 = load i32, ptr %35, align 4
  %37 = load i32, ptr @MyDatabaseId, align 4
  %.not51 = icmp eq i32 %36, %37
  %.not52 = icmp eq i32 %36, 0
  %or.cond = or i1 %.not52, %.not51
  br i1 %or.cond, label %38, label %82, !llvm.loop !17

38:                                               ; preds = %.lr.ph
  %39 = getelementptr inbounds nuw i8, ptr %35, i64 24
  %40 = load i8, ptr %39, align 4
  switch i8 %40, label %82 [
    i8 0, label %41
    i8 114, label %44
    i8 97, label %58
    i8 111, label %64
    i8 105, label %75
  ]

41:                                               ; preds = %38
  %42 = call zeroext i1 @errstart_cold(i32 noundef 21, ptr noundef null) #9
  call void @llvm.assume(i1 %42)
  %43 = call i32 (ptr, ...) @errmsg_internal(ptr noundef nonnull @.str.11) #8
  call void @errfinish(ptr noundef nonnull @.str.1, i32 noundef 1413, ptr noundef nonnull @__func__.shdepDropOwned) #8
  unreachable

44:                                               ; preds = %38
  %45 = getelementptr inbounds nuw i8, ptr %35, i64 4
  %46 = load i32, ptr %45, align 4
  %47 = getelementptr inbounds nuw i8, ptr %35, i64 8
  %48 = load i32, ptr %47, align 4
  %49 = call zeroext i1 @RemoveRoleFromObjectPolicy(i32 noundef %17, i32 noundef %46, i32 noundef %48) #8
  br i1 %49, label %82, label %50

50:                                               ; preds = %44
  %51 = load i32, ptr %45, align 4
  store i32 %51, ptr %5, align 4
  %52 = load i32, ptr %47, align 4
  store i32 %52, ptr %11, align 4
  %53 = getelementptr inbounds nuw i8, ptr %35, i64 12
  %54 = load i32, ptr %53, align 4
  store i32 %54, ptr %12, align 4
  call void @AcquireDeletionLock(ptr noundef nonnull %5, i32 noundef 0) #8
  %55 = call zeroext i1 @systable_recheck_tuple(ptr noundef %28, ptr noundef nonnull %30) #8
  br i1 %55, label %57, label %56

56:                                               ; preds = %50
  call void @ReleaseDeletionLock(ptr noundef nonnull %5) #8
  br label %82

57:                                               ; preds = %50
  call void @add_exact_object_address(ptr noundef nonnull %5, ptr noundef %6) #8
  br label %82

58:                                               ; preds = %38
  %59 = getelementptr inbounds nuw i8, ptr %35, i64 4
  %60 = load i32, ptr %59, align 4
  %.not53 = icmp eq i32 %60, 1261
  br i1 %.not53, label %64, label %61

61:                                               ; preds = %58
  %62 = getelementptr inbounds nuw i8, ptr %35, i64 8
  %63 = load i32, ptr %62, align 4
  call void @RemoveRoleFromObjectACL(i32 noundef %17, i32 noundef %60, i32 noundef %63) #8
  br label %82

64:                                               ; preds = %58, %38
  %.phi.trans.insert = getelementptr inbounds nuw i8, ptr %35, i64 4
  %.pre = load i32, ptr %.phi.trans.insert, align 4
  br i1 %.not51, label %._crit_edge65, label %65

65:                                               ; preds = %64
  %66 = icmp eq i32 %.pre, 1261
  br i1 %66, label %._crit_edge65, label %82

._crit_edge65:                                    ; preds = %64, %65
  %67 = phi i32 [ 1261, %65 ], [ %.pre, %64 ]
  store i32 %67, ptr %5, align 4
  %68 = getelementptr inbounds nuw i8, ptr %35, i64 8
  %69 = load i32, ptr %68, align 4
  store i32 %69, ptr %11, align 4
  %70 = getelementptr inbounds nuw i8, ptr %35, i64 12
  %71 = load i32, ptr %70, align 4
  store i32 %71, ptr %12, align 4
  call void @AcquireDeletionLock(ptr noundef nonnull %5, i32 noundef 0) #8
  %72 = call zeroext i1 @systable_recheck_tuple(ptr noundef %28, ptr noundef nonnull %30) #8
  br i1 %72, label %74, label %73

73:                                               ; preds = %._crit_edge65
  call void @ReleaseDeletionLock(ptr noundef nonnull %5) #8
  br label %82

74:                                               ; preds = %._crit_edge65
  call void @add_exact_object_address(ptr noundef nonnull %5, ptr noundef %6) #8
  br label %82

75:                                               ; preds = %38
  %76 = getelementptr inbounds nuw i8, ptr %35, i64 4
  %77 = load i32, ptr %76, align 4
  %78 = getelementptr inbounds nuw i8, ptr %35, i64 8
  %79 = load i32, ptr %78, align 4
  %80 = getelementptr inbounds nuw i8, ptr %35, i64 12
  %81 = load i32, ptr %80, align 4
  call void @RemoveRoleFromInitPriv(i32 noundef %17, i32 noundef %77, i32 noundef %79, i32 noundef %81) #8
  br label %82

82:                                               ; preds = %38, %56, %61, %73, %75, %57, %44, %74, %65, %.lr.ph
  call void @llvm.lifetime.end.p0(i64 12, ptr nonnull %5) #8
  %83 = call ptr @systable_getnext(ptr noundef %28) #8
  %.not50 = icmp eq ptr %83, null
  br i1 %.not50, label %._crit_edge, label %.lr.ph

._crit_edge:                                      ; preds = %82, %26
  call void @systable_endscan(ptr noundef %28) #8
  call void @llvm.lifetime.end.p0(i64 144, ptr nonnull %3) #8
  %indvars.iv.next = add nuw nsw i64 %indvars.iv68, 1
  %84 = load i32, ptr %8, align 4
  %85 = sext i32 %84 to i64
  %86 = icmp slt i64 %indvars.iv.next, %85
  br i1 %86, label %.lr.ph69, label %._crit_edge61
}